(dp1
S'first_name'
p2
S'CHAR(128)'
p3
sS'last_name'
p4
S'CHAR(128)'
p5
sS'language'
p6
S'CHAR(32)'
p7
sS'registration_key'
p8
S'CHAR(128)'
p9
sS'dob'
p10
S'DATE'
p11
sS'gender'
p12
S'CHAR(32)'
p13
sS'id'
p14
S'INTEGER PRIMARY KEY AUTOINCREMENT'
p15
sS'postcode'
p16
S'CHAR(32)'
p17
sS'country'
p18
S'CHAR(32)'
p19
sS'timezone'
p20
S'CHAR(32)'
p21
sS'oid_name'
p22
S'CHAR(32) UNIQUE'
p23
sS'password'
p24
S'CHAR(32)'
p25
sS'nickname'
p26
S'CHAR(32) UNIQUE'
p27
sS'email'
p28
S'CHAR(128)'
p29
s.