(dp1
S'handle'
p2
S'CHAR(255)'
p3
sS'issued'
p4
S'INTEGER'
p5
sS'server_url'
p6
S'CHAR(2047)'
p7
sS'assoc_type'
p8
S'CHAR(64)'
p9
sS'secret'
p10
S'BLOB'
p11
sS'lifetime'
p12
S'INTEGER'
p13
sS'id'
p14
S'INTEGER PRIMARY KEY AUTOINCREMENT'
p15
s.