(dp1
S'output'
p2
S''
sS'layer'
p3
S'/home/hcvst/dev/web2py/applications/openid/views/auth/user.html'
p4
sS'code'
p5
S'response.write(\'<!DOCTYPE html PUBLIC "-//W3C//DTD XHTML 1.0 Strict//EN" "http://www.w3.org/TR/xhtml1/DTD/xhtml1-strict.dtd">\\n<!--\\nDesign by Free CSS Templates\\nhttp://www.freecsstemplates.org\\nReleased for free under a Creative Commons Attribution 2.5 License\\n\\nName       : Nimbuslike\\nDescription: A two-column, fixed-width design for 1024x768 screen resolutions.\\nVersion    : 1.0\\nReleased   : 20090717\\n\\n-->\\n<html xmlns="http://www.w3.org/1999/xhtml">\\n<head>\\n<meta http-equiv="content-type" content="text/html; charset=utf-8" />\\n<meta name="author" lang="en" content="\',escape=False)\nresponse.write(response.author)\nresponse.write(\'" />\\n<meta name="keywords" content="\',escape=False)\nresponse.write(response.keywords)\nresponse.write(\'" />\\n<meta name="description" content="\',escape=False)\nresponse.write(response.description)\nresponse.write(\'" />\\n<title>\',escape=False)\nresponse.write(response.title or URL(r=request))\nresponse.write(\'</title>\\n<link href="\',escape=False)\nresponse.write(URL(r=request, c=\'static\', f=\'nimbus/style.css\'))\nresponse.write(\'" rel="stylesheet" type="text/css" media="screen" />\\n</head>\\n<body>\\n<div id="wrapper">\\n    <div id="header-wrapper">\\n        <div id="header">\\n            <div id="logo">\\n                <h1><a href="#">ICY OpenID</a></h1>\\n                <h2>by <a href="http://icy.co.za/">icy.co.za</a></h2>\\n            </div>\\n            <!-- div id="search">\\n                <form method="get" action="">\\n                    <fieldset>\\n                    <input type="text" id="search-text" name="s" value="" />\\n                    </fieldset>\\n                </form>\\n            </div -->\\n            <!-- end #logo -->\\n        </div>\\n        <!-- end #header -->\\n        <div id="menu">\\n            <ul>\\n            \',escape=False)\nfirst=True\nresponse.write(\'\\n            \',escape=False)\nfor _name, _link in response.menu:\n    response.write(\'\\n            <li\',escape=False)\n    if first:\n        response.write(\' class="first"\',escape=False)\n        pass\n    response.write(\'><a href="\',escape=False)\n    response.write(_link)\n    response.write(\'">\',escape=False)\n    response.write(_name)\n    response.write(\'</a></li>\\n            \',escape=False)\n    first=False\n    response.write(\'\\n            \',escape=False)\n    pass\nresponse.write(\'\\n            </ul>\\n        </div>\\n        <!-- end #menu -->\\n    </div>\\n    <!-- end #header-wrapper -->\\n    <div id="page">\\n        \',escape=False)\ntry:\n    response.write(\'\\n        \',escape=False)\n    if dialogView:\n        response.write(\'\\n        \',escape=False)\n        pass\n    response.write(\'\\n        \',escape=False)\nexcept:\n    response.write(\'\\n        <div id="banner"><a href="#"><img src="\',escape=False)\n    response.write(URL(r=request, c=\'static\', f=\'nimbus/images/img05.jpg\'))\n    response.write(\'" alt="" /></a></div>\\n        \',escape=False)\n    pass\nresponse.write(\'\\n        <div id="page-bgcontent">\\n            <div id="content">\\n            \\n                \\n<h1>\',escape=False)\nresponse.write(title)\nresponse.write(\'</h1>\\n\',escape=False)\nresponse.write(form)\nresponse.write(\'\\n\\n                \\n            </div>\\n            <!-- end #content -->\\n            \\n        \',escape=False)\ntry:\n    response.write(\'\\n        \',escape=False)\n    if dialogView:\n        response.write(\'\\n        \',escape=False)\n        pass\n    response.write(\'\\n        \',escape=False)\nexcept:\n    response.write(\'\\n            <div id="sidebar">\\n                <ul>\\n                    <li>\\n                         <h2>account</h2>\\n                         \',escape=False)\n    if auth.is_logged_in():\n        response.write(\'\\n                             Hello <strong>\',escape=False)\n        response.write(auth.user.oid_name)\n        response.write(\'</strong>! You are logged in.\\n                         \',escape=False)\n    else:\n        response.write(\'\\n                             \',escape=False)\n        response.write(auth.login())\n        response.write(\'\\n                         \',escape=False)\n        pass\n    response.write(\'\\n                    </li>\\n                    \\n                    \',escape=False)\n    if not auth.is_logged_in():\n        response.write("\\n                    <li>\\n                        <h2>register</h2>\\n                        <p><strong>Don\'t have an openID yet?</strong>\\n                        Register your ID now for free.\\n                        </p>\\n                    </li>\\n                    ",escape=False)\n        pass\n    response.write(\'\\n                    <li>\\n                        <h2>use your id</h2>\\n                        <p>Here are a number of sites that accept opendID.</p>\\n                        <ul>\\n                            <li><a href="#">Sed accumsan congue</a></li>\\n                            <li><a href="#"> Nulla dignissim nec augue</a></li>\\n                            <li><a href="#">Nunc ante elit nulla</a></li>\\n                            <li><a href="#">Sed suscipit consequat</a></li>\\n                            <li><a href="#">Cursus sed arcu sed</a></li>\\n                            <li><a href="#">Nulla dignissim nec augue</a></li>\\n                            <li><a href="#">Sed accumsan congue</a></li>\\n                            <li><a href="#">Dignissim lorem augue</a></li>\\n                            <li><a href="#">Nunc ante elit nulla</a></li>\\n                            <li><a href="#">Sed suscipit consequat</a></li>\\n                            <li><a href="#">Cursus sed arcu sed<br />\\n                                </a></li>\\n                        </ul>\\n                    </li>\\n                </ul>\\n            </div>\\n            <!-- end #sidebar -->\\n        \',escape=False)\n    pass\nresponse.write(\'\\n            <div style="clear: both;">&nbsp;</div>\\n        </div>\\n        <div id="footer">\\n            <p>(c) 2009 icy.co.za Design by <a href="http://www.nodethirtythree.com/">nodethirtythree</a> + <a href="http://www.freecsstemplates.org">free css templates</a></p>\\n        </div>\\n        <!-- end #footer -->\\n    </div>\\n    <!-- end #page -->\\n</div>\\n</body>\\n</html>\\n\',escape=False)'
p6
sS'traceback'
p7
S'Traceback (most recent call last):\n  File "/home/hcvst/dev/web2py/gluon/restricted.py", line 98, in restricted\n    exec ccode in environment\n  File "/home/hcvst/dev/web2py/applications/openid/views/auth/user.html", line 40, in <module>\nNameError: name \'title\' is not defined\n'
p8
s.