(dp1
S'output'
p2
S''
sS'layer'
p3
S'/home/hcvst/dev/web2py/applications/openid/views/generic.html'
p4
sS'code'
p5
S'response.write(\'<!DOCTYPE html PUBLIC "-//W3C//DTD XHTML 1.0 Strict//EN" "http://www.w3.org/TR/xhtml1/DTD/xhtml1-strict.dtd">\\n<html xmlns="http://www.w3.org/1999/xhtml" xml:lang="en" lang="en">\\n<head>\\n<meta http-equiv="content-type" content="text/html; charset=utf-8" />\\n<meta name="author" lang="en" content="\',escape=False)\nresponse.write(response.author)\nresponse.write(\'" />\\n<meta name="keywords" content="\',escape=False)\nresponse.write(response.keywords)\nresponse.write(\'" />\\n<meta name="description" content="\',escape=False)\nresponse.write(response.description)\nresponse.write(\'" />\\n<title>\',escape=False)\nresponse.write(response.title or URL(r=request))\nresponse.write(\'</title>\\n<link rel="stylesheet" media="screen,projection" type="text/css" href="\',escape=False)\nresponse.write(URL(r=request,c=\'static\',f=\'styles.css\'))\nresponse.write(\'" />\\n\',escape=False)\nimport os\nresponse.write(\'\\n<link href="\',escape=False)\nresponse.write(URL(r=request,c=\'static\',f=\'calendar.css\'))\nresponse.write(\'" rel="stylesheet" type="text/css" media="screen" charset="utf-8" />\\n<script src="\',escape=False)\nresponse.write(URL(r=request,c=\'static\',f=\'jquery.js\'))\nresponse.write(\'" type="text/javascript"></script>\\n<script src="\',escape=False)\nresponse.write(URL(r=request,c=\'static\',f=\'calendar.js\'))\nresponse.write(\'" type="text/javascript" charset="utf-8"></script>\\n<script type="text/javascript"><!--\\nfunction popup(url) {\\n  newwindow=window.open(url,\\\'name\\\',\\\'height=400,width=600\\\');\\n  if (window.focus) newwindow.focus();\\n  return false;\\n}\\nfunction collapse(id) { $(\\\'#\\\'+id).slideToggle(); }\\nfunction fade(id,value) { if(value>0) $(\\\'#\\\'+id).hide().fadeIn(\\\'slow\\\'); else $(\\\'#\\\'+id).show().fadeOut(\\\'slow\\\'); }\\nfunction ajax(u,s,t) {\\n  var query="";\\n  for(i=0; i<s.length; i++) { \\n     if(i>0) query=query+"&";\\n     query=query+encodeURIComponent(s[i])+"="+encodeURIComponent(document.getElementById(s[i]).value);\\n  }\\n  $.ajax({type: "POST", url: u, data: query, success: function(msg) { document.getElementById(t).innerHTML=msg; } });  \\n}\\nString.prototype.reverse = function () { return this.split(\\\'\\\').reverse().join(\\\'\\\');};\\n$(document).ready(function() {\\n$(\\\'.hidden\\\').hide();\\n$(\\\'.error\\\').hide().slideDown(\\\'slow\\\');\\n$(\\\'.flash\\\').hide().slideDown(\\\'slow\\\')\\n$(\\\'.flash\\\').click(function() { $(this).fadeOut(\\\'slow\\\'); return false; });\\n//hc$(\\\'input.string\\\').attr(\\\'size\\\',50);\\n//hc$(\\\'textarea.text\\\').attr(\\\'cols\\\',50).attr(\\\'rows\\\',10);\\n$(\\\'input.integer\\\').keyup(function(){this.value=this.value.reverse().replace(/[^0-9\\\\-]|\\\\-(?=.)/g,\\\'\\\').reverse();});\\n$(\\\'input.double\\\').keyup(function(){this.value=this.value.reverse().replace(/[^0-9\\\\-\\\\.]|[\\\\-](?=.)|[\\\\.](?=[0-9]*[\\\\.])/g,\\\'\\\').reverse();});\\n$(\\\'input.delete\\\').attr(\\\'onclick\\\',\\\'if(this.checked) if(!confirm("\',escape=False)\nresponse.write(T(\'Sure you want to delete this object?\'))\nresponse.write(\'")) this.checked=false;\\\');\\ntry {$("input.date").focus( function() {Calendar.setup({\\n     inputField:this.id, ifFormat:"\',escape=False)\nresponse.write(T(\'%Y-%m-%d\'))\nresponse.write(\'", showsTime:false\\n}); }); } catch(e) {};\\ntry { $("input.datetime").focus( function() {Calendar.setup({\\n     inputField:this.id, ifFormat:"\',escape=False)\nresponse.write(T(\'%Y-%m-%d %H:%M:%S\'))\nresponse.write(\'", showsTime: true,timeFormat: "24"\\n}); }); } catch(e) {};\\ntry { $("input.time").clockpick({\\n     starthour:0, endhour:23, showminutes:true, military:true\\n}); } catch(e) {};\\n});\\n//--></script>\\n\\n</head>\\n<body>\\n<div id="header">\\n <div id="header_inner" class="fixed">\\n   <div id="logo">\\n     <h1><a href="http://www.web2py.com">[web2py<sup style="font-size:0.5em;">TM</sup>]</a></h1>\\n     <h2>\',escape=False)\nresponse.write(request.application)\nresponse.write(\'</h2>\\n   </div>\\n   \',escape=False)\nif response.menu is not None:\n    response.write(\'\\n   <div id="menu">\\n   <ul>\\n    \',escape=False)\n    for _name, _link in response.menu:\n        response.write(\'\\n     <li><a href="\',escape=False)\n        response.write(_link)\n        response.write(\'" onmouseover="this.ccc=this.style.backgroundColor;this.style.backgroundColor=\\\'white\\\';" onmouseout="this.style.backgroundColor=this.ccc;" \',escape=False)\n        if not _active:\n            response.write(\'class="inactive"\',escape=False)\n            pass\n        response.write(\'>\',escape=False)\n        response.write(_name)\n        response.write(\'</a></li>\\n     \',escape=False)\n        pass\n    response.write(\'\\n   </ul>\\n   </div>\\n   \',escape=False)\n    pass\nresponse.write(\'\\n  </div>\\n</div>\\n<div id="main">\\n  <div id="main_inner" class="fixed">\\n    <div id="primaryContent_columnless">\\n      <div id="columnA_columnless">\\n        \',escape=False)\nif response.flash:\n    response.write(\'\\n        <div class="flash">\',escape=False)\n    response.write(response.flash)\n    response.write(\'</div>\\n        \',escape=False)\n    pass\nresponse.write(\'\\n        \\n\',escape=False)\nresponse.write(BEAUTIFY(response._vars))\nresponse.write(\'\\n\\n\\n<button onclick="document.location=\\\'\',escape=False)\nresponse.write(URL("admin","default","design",args=request.application))\nresponse.write(\'\\\'">admin</button>\\n<button onclick="$(\\\'#request\\\').slideToggle()">request</button>\\n<div class="hidden" id="request"><h2>request</h2>\',escape=False)\nresponse.write(BEAUTIFY(request))\nresponse.write(\'</div>\\n<button onclick="$(\\\'#session\\\').slideToggle()">session</button>\\n<div class="hidden" id="session"><h2>session</h2>\',escape=False)\nresponse.write(BEAUTIFY(session))\nresponse.write(\'</div>\\n<button onclick="$(\\\'#response\\\').slideToggle()">response</button>\\n<div class="hidden" id="response"><h2>response</h2>\',escape=False)\nresponse.write(BEAUTIFY(response))\nresponse.write(\'</div>\\n<script>$(\\\'.hidden\\\').hide();</script>\\n\\n      </div>\\n    </div>\\n  </div>\\n</div>\\n<div id="footer" class="fixed">\\n   Powered by <a href="http://www.web2py.com">web2py</a> (TM) created by Massimo Di Pierro &copy; 2007, 2008, 2009\\n</div>\\n</body>\\n</html>\\n\',escape=False)'
p6
sS'traceback'
p7
S'Traceback (most recent call last):\n  File "/home/hcvst/dev/web2py/gluon/restricted.py", line 98, in restricted\n    exec ccode in environment\n  File "/home/hcvst/dev/web2py/applications/openid/views/generic.html", line 34, in <module>\nNameError: name \'_active\' is not defined\n'
p8
s.