(dp1
S'output'
p2
S''
sS'layer'
p3
S'/home/hcvst/dev/web2py/applications/openid/views/auth/data.html'
p4
sS'code'
p5
S'response.write(\'<!DOCTYPE html PUBLIC "-//W3C//DTD XHTML 1.0 Strict//EN" "http://www.w3.org/TR/xhtml1/DTD/xhtml1-strict.dtd">\\n<!--\\nDesign by Free CSS Templates\\nhttp://www.freecsstemplates.org\\nReleased for free under a Creative Commons Attribution 2.5 License\\n\\nName       : Nimbuslike\\nDescription: A two-column, fixed-width design for 1024x768 screen resolutions.\\nVersion    : 1.0\\nReleased   : 20090717\\n\\n-->\\n<html xmlns="http://www.w3.org/1999/xhtml">\\n<head>\\n<meta http-equiv="content-type" content="text/html; charset=utf-8" />\\n<meta name="author" lang="en" content="\',escape=False)\nresponse.write(response.author)\nresponse.write(\'" />\\n<meta name="keywords" content="\',escape=False)\nresponse.write(response.keywords)\nresponse.write(\'" />\\n<meta name="description" content="\',escape=False)\nresponse.write(response.description)\nresponse.write(\'" />\\n<title>\',escape=False)\nresponse.write(response.title or URL(r=request))\nresponse.write(\'</title>\\n\',escape=False)\nimport os\nresponse.write(\'\\n<link href="\',escape=False)\nresponse.write(URL(r=request,c=\'static\',f=\'calendar.css\'))\nresponse.write(\'" rel="stylesheet" type="text/css" media="screen" charset="utf-8" />\\n<script src="\',escape=False)\nresponse.write(URL(r=request,c=\'static\',f=\'jquery.js\'))\nresponse.write(\'" type="text/javascript"></script>\\n<script src="\',escape=False)\nresponse.write(URL(r=request,c=\'static\',f=\'calendar.js\'))\nresponse.write(\'" type="text/javascript" charset="utf-8"></script>\\n<script type="text/javascript"><!--\\nfunction popup(url) {\\n  newwindow=window.open(url,\\\'name\\\',\\\'height=400,width=600\\\');\\n  if (window.focus) newwindow.focus();\\n  return false;\\n}\\nfunction collapse(id) { $(\\\'#\\\'+id).slideToggle(); }\\nfunction fade(id,value) { if(value>0) $(\\\'#\\\'+id).hide().fadeIn(\\\'slow\\\'); else $(\\\'#\\\'+id).show().fadeOut(\\\'slow\\\'); }\\nfunction ajax(u,s,t) {\\n  var query="";\\n  for(i=0; i<s.length; i++) { \\n     if(i>0) query=query+"&";\\n     query=query+encodeURIComponent(s[i])+"="+encodeURIComponent(document.getElementById(s[i]).value);\\n  }\\n  $.ajax({type: "POST", url: u, data: query, success: function(msg) { document.getElementById(t).innerHTML=msg; } });  \\n}\\nString.prototype.reverse = function () { return this.split(\\\'\\\').reverse().join(\\\'\\\');};\\n$(document).ready(function() {\\n$(\\\'.hidden\\\').hide();\\n$(\\\'.error\\\').hide().slideDown(\\\'slow\\\');\\n$(\\\'.flash\\\').hide().slideDown(\\\'slow\\\')\\n$(\\\'.flash\\\').click(function() { $(this).fadeOut(\\\'slow\\\'); return false; });\\n//hc$(\\\'input.string\\\').attr(\\\'size\\\',50);\\n//hc$(\\\'textarea.text\\\').attr(\\\'cols\\\',50).attr(\\\'rows\\\',10);\\n$(\\\'input.integer\\\').keyup(function(){this.value=this.value.reverse().replace(/[^0-9\\\\-]|\\\\-(?=.)/g,\\\'\\\').reverse();});\\n$(\\\'input.double\\\').keyup(function(){this.value=this.value.reverse().replace(/[^0-9\\\\-\\\\.]|[\\\\-](?=.)|[\\\\.](?=[0-9]*[\\\\.])/g,\\\'\\\').reverse();});\\n$(\\\'input.delete\\\').attr(\\\'onclick\\\',\\\'if(this.checked) if(!confirm("\',escape=False)\nresponse.write(T(\'Sure you want to delete this object?\'))\nresponse.write(\'")) this.checked=false;\\\');\\ntry {$("input.date").focus( function() {Calendar.setup({\\n     inputField:this.id, ifFormat:"\',escape=False)\nresponse.write(T(\'%Y-%m-%d\'))\nresponse.write(\'", showsTime:false\\n}); }); } catch(e) {};\\ntry { $("input.datetime").focus( function() {Calendar.setup({\\n     inputField:this.id, ifFormat:"\',escape=False)\nresponse.write(T(\'%Y-%m-%d %H:%M:%S\'))\nresponse.write(\'", showsTime: true,timeFormat: "24"\\n}); }); } catch(e) {};\\ntry { $("input.time").clockpick({\\n     starthour:0, endhour:23, showminutes:true, military:true\\n}); } catch(e) {};\\n});\\n//--></script>\\n\\n<link href="\',escape=False)\nresponse.write(URL(r=request, c=\'static\', f=\'nimbus/style.css\'))\nresponse.write(\'" rel="stylesheet" type="text/css" media="screen" />\\n\\n</head>\\n<body>\\n<div id="wrapper">\\n    <div id="header-wrapper">\\n        <div id="header">\\n            <div id="logo">\\n                <h1><a href="#">ICY OpenID</a></h1>\\n                <h2>by <a href="http://icy.co.za/">icy.co.za</a></h2>\\n            </div>\\n            <!-- div id="search">\\n                <form method="get" action="">\\n                    <fieldset>\\n                    <input type="text" id="search-text" name="s" value="" />\\n                    </fieldset>\\n                </form>\\n            </div -->\\n            <!-- end #logo -->\\n        </div>\\n        <!-- end #header -->\\n        <div id="menu">\\n            <ul>\\n            \',escape=False)\nfirst=True\nresponse.write(\'\\n            \',escape=False)\nfor _name, _link in response.menu:\n    response.write(\'\\n            <li\',escape=False)\n    if first:\n        response.write(\' class="first"\',escape=False)\n        pass\n    response.write(\'><a href="\',escape=False)\n    response.write(_link)\n    response.write(\'">\',escape=False)\n    response.write(_name)\n    response.write(\'</a></li>\\n            \',escape=False)\n    first=False\n    response.write(\'\\n            \',escape=False)\n    pass\nresponse.write(\'\\n            </ul>\\n        </div>\\n        <!-- end #menu -->\\n    </div>\\n    <!-- end #header-wrapper -->\\n    <div id="page">\\n        \',escape=False)\ntry:\n    response.write(\'\\n        \',escape=False)\n    if dialogView:\n        response.write(\'\\n        \',escape=False)\n        pass\n    response.write(\'\\n        \',escape=False)\nexcept:\n    response.write(\'\\n        <div id="banner"><a href="#"><img src="\',escape=False)\n    response.write(URL(r=request, c=\'static\', f=\'nimbus/images/img05.jpg\'))\n    response.write(\'" alt="" /></a></div>\\n        \',escape=False)\n    pass\nresponse.write(\'\\n        \',escape=False)\nif response.flash:\n    response.write(\'\\n        <div class="flash">\',escape=False)\n    response.write(response.flash)\n    response.write(\'</div>\\n        \',escape=False)\n    pass\nresponse.write(\'\\n        <div id="page-bgcontent">\\n            <div id="content">\\n            \\n                \\n<h2>\',escape=False)\nresponse.write(title)\nresponse.write(\'</h2>\\n<p>\',escape=False)\nresponse.write(text)\nresponse.write(\'</p>\\n\',escape=False)\nresponse.write(form)\nresponse.write(\'\\n\\n                \\n            </div>\\n            <!-- end #content -->\\n            \\n        \',escape=False)\ntry:\n    response.write(\'\\n        \',escape=False)\n    if dialogView:\n        response.write(\'\\n        \',escape=False)\n        pass\n    response.write(\'\\n        \',escape=False)\nexcept:\n    response.write(\'\\n            <div id="sidebar">\\n                <ul>\\n                    <li>\\n                         <h2>account</h2>\\n                         \',escape=False)\n    if auth.is_logged_in():\n        response.write(\'\\n                             Hello <strong>\',escape=False)\n        response.write(auth.user.oid_name)\n        response.write(\'</strong>! You are logged in.\\n                             <p>\\n                             <ul>\\n                               <li><a href="\',escape=False)\n        response.write(URL(r=request, c=\'auth\', f=\'user\', args=\'profile\'))\n        response.write(\'">Your profile</a>\\n                               <li><a href="\',escape=False)\n        response.write(URL(r=request, c=\'auth\', f=\'user\', args=\'profile\'))\n        response.write(\'">Change password</a>\\n                               <li><a href="\',escape=False)\n        response.write(URL(r=request, c=\'auth\', f=\'user\', args=\'logout\'))\n        response.write(\'">Logout</a>\\n                             </ul>\\n                             </p>\\n                            \\n                         \',escape=False)\n    else:\n        response.write(\'\\n                             \',escape=False)\n        response.write(auth.login())\n        response.write(\'\\n                             <ul>\\n                               <li><a href="\',escape=False)\n        response.write(URL(r=request, c=\'auth\', f=\'user\', args=\'recover_password\'))\n        response.write(\'">Lost password</a>\\n                               <li><a href="\',escape=False)\n        response.write(URL(r=request, c=\'auth\', f=\'user\', args=\'register\'))\n        response.write(\'">Register</a>\\n                             </ul>\\n                             </p>\\n                         \',escape=False)\n        pass\n    response.write(\'\\n                    </li>\\n                    \\n\\n                    <li>\\n                        <h2>use your id</h2>\\n                        <p>Here are a number of sites that accept opendID.</p>\\n                        <ul>\\n                            <li><a href="#">Sed accumsan congue</a></li>\\n                            <li><a href="#"> Nulla dignissim nec augue</a></li>\\n                            <li><a href="#">Nunc ante elit nulla</a></li>\\n                            <li><a href="#">Sed suscipit consequat</a></li>\\n                            <li><a href="#">Cursus sed arcu sed</a></li>\\n                            <li><a href="#">Nulla dignissim nec augue</a></li>\\n                            <li><a href="#">Sed accumsan congue</a></li>\\n                            <li><a href="#">Dignissim lorem augue</a></li>\\n                            <li><a href="#">Nunc ante elit nulla</a></li>\\n                            <li><a href="#">Sed suscipit consequat</a></li>\\n                            <li><a href="#">Cursus sed arcu sed<br />\\n                                </a></li>\\n                        </ul>\\n                    </li>\\n                </ul>\\n            </div>\\n            <!-- end #sidebar -->\\n        \',escape=False)\n    pass\nresponse.write(\'\\n            <div style="clear: both;">&nbsp;</div>\\n        </div>\\n        <div id="footer">\\n            <p>(c) 2009 icy.co.za Design by <a href="http://www.nodethirtythree.com/">nodethirtythree</a> + <a href="http://www.freecsstemplates.org">free css templates</a></p>\\n        </div>\\n        <!-- end #footer -->\\n    </div>\\n    <!-- end #page -->\\n</div>\\n</body>\\n</html>\\n\',escape=False)'
p6
sS'traceback'
p7
S'Traceback (most recent call last):\n  File "/home/hcvst/dev/web2py/gluon/restricted.py", line 98, in restricted\n    exec ccode in environment\n  File "/home/hcvst/dev/web2py/applications/openid/views/auth/data.html", line 60, in <module>\nNameError: name \'title\' is not defined\n'
p8
s.