(dp1
S'output'
p2
S''
sS'layer'
p3
S'/home/hcvst/dev/1.65.5web2py/applications/openid/views/default/index.html'
p4
sS'code'
p5
S'response.write(\'<!DOCTYPE html PUBLIC "-//W3C//DTD XHTML 1.0 Strict//EN" "http://www.w3.org/TR/xhtml1/DTD/xhtml1-strict.dtd">\\n<!--\\nDesign by Free CSS Templates\\nhttp://www.freecsstemplates.org\\nReleased for free under a Creative Commons Attribution 2.5 License\\n\\nName       : Nimbuslike\\nDescription: A two-column, fixed-width design for 1024x768 screen resolutions.\\nVersion    : 1.0\\nReleased   : 20090717\\n\\n-->\\n<html xmlns="http://www.w3.org/1999/xhtml">\\n<head>\\n<meta http-equiv="content-type" content="text/html; charset=utf-8" />\\n<meta name="author" lang="en" content="\',escape=False)\nresponse.write(response.author)\nresponse.write(\'" />\\n<meta name="keywords" content="\',escape=False)\nresponse.write(response.keywords)\nresponse.write(\'" />\\n<meta name="description" content="\',escape=False)\nresponse.write(response.description)\nresponse.write(\'" />\\n<title>\',escape=False)\nresponse.write(response.title or URL(r=request))\nresponse.write(\'</title>\\n\',escape=False)\nimport os\nresponse.write(\'\\n<link href="\',escape=False)\nresponse.write(URL(r=request,c=\'static\',f=\'calendar.css\'))\nresponse.write(\'" rel="stylesheet" type="text/css" media="screen" charset="utf-8" />\\n<script src="\',escape=False)\nresponse.write(URL(r=request,c=\'static\',f=\'jquery.js\'))\nresponse.write(\'" type="text/javascript"></script>\\n<script src="\',escape=False)\nresponse.write(URL(r=request,c=\'static\',f=\'calendar.js\'))\nresponse.write(\'" type="text/javascript" charset="utf-8"></script>\\n<script type="text/javascript"><!--\\nfunction popup(url) {\\n  newwindow=window.open(url,\\\'name\\\',\\\'height=400,width=600\\\');\\n  if (window.focus) newwindow.focus();\\n  return false;\\n}\\nfunction collapse(id) { jQuery(\\\'#\\\'+id).slideToggle(); }\\nfunction fade(id,value) { if(value>0) jQuery(\\\'#\\\'+id).hide().fadeIn(\\\'slow\\\'); else jQuery(\\\'#\\\'+id).show().fadeOut(\\\'slow\\\'); }\\nfunction ajax(u,s,t) {\\n  var query="";\\n  for(i=0; i<s.length; i++) { \\n     if(i>0) query=query+"&";\\n     query=query+encodeURIComponent(s[i])+"="+encodeURIComponent(document.getElementById(s[i]).value);\\n  }\\n  jQuery.ajax({type: "POST", url: u, data: query, success: function(msg) { if(t==\\\':eval\\\') eval(msg); else document.getElementById(t).innerHTML=msg; } });  \\n}\\nString.prototype.reverse = function () { return this.split(\\\'\\\').reverse().join(\\\'\\\');};\\nfunction web2py_ajax_init() {\\n  jQuery(\\\'.hidden\\\').hide();\\n  jQuery(\\\'.error\\\').hide().slideDown(\\\'slow\\\');\\n  jQuery(\\\'.flash\\\').hide();\\n  if(jQuery(\\\'.flash\\\').html()!=\\\'\\\') jQuery(\\\'.flash\\\').slideDown(\\\'slow\\\');\\n  jQuery(\\\'.flash\\\').click(function() { jQuery(this).fadeOut(\\\'slow\\\'); return false; });\\n  jQuery(\\\'input.string\\\').attr(\\\'size\\\',50);\\n  jQuery(\\\'textarea.text\\\').attr(\\\'cols\\\',50).attr(\\\'rows\\\',10);\\n  jQuery(\\\'input.integer\\\').keyup(function(){this.value=this.value.reverse().replace(/[^0-9\\\\-]|\\\\-(?=.)/g,\\\'\\\').reverse();});\\n  jQuery(\\\'input.double\\\').keyup(function(){this.value=this.value.reverse().replace(/[^0-9\\\\-\\\\.]|[\\\\-](?=.)|[\\\\.](?=[0-9]*[\\\\.])/g,\\\'\\\').reverse();});\\n  jQuery(\\\'input.delete\\\').attr(\\\'onclick\\\',\\\'if(this.checked) if(!confirm("\',escape=False)\nresponse.write(T(\'Sure you want to delete this object?\'))\nresponse.write(\'")) this.checked=false;\\\');\\n  try {jQuery("input.date").focus( function() {Calendar.setup({\\n     inputField:this.id, ifFormat:"\',escape=False)\nresponse.write(T(\'%Y-%m-%d\'))\nresponse.write(\'", showsTime:false\\n  }); }); } catch(e) {};\\n  try { jQuery("input.datetime").focus( function() {Calendar.setup({\\n     inputField:this.id, ifFormat:"\',escape=False)\nresponse.write(T(\'%Y-%m-%d %H:%M:%S\'))\nresponse.write(\'", showsTime: true,timeFormat: "24"\\n  }); }); } catch(e) {};\\n  try { jQuery("input.time").clockpick({\\n      starthour:0, endhour:23, showminutes:true, military:true\\n  }); } catch(e) {};\\n};\\njQuery(document).ready(web2py_ajax_init);\\n//--></script>\\n\\n<link href="\',escape=False)\nresponse.write(URL(r=request, c=\'static\', f=\'nimbus/style.css\'))\nresponse.write(\'" rel="stylesheet" type="text/css" media="screen" />\\n\\n</head>\\n<body>\\n<div id="wrapper">\\n    <div id="header-wrapper">\\n        <div id="header">\\n            <div id="logo">\\n                <h1><a href="#">ICY OpenID</a></h1>\\n                <h2>by <a href="http://icy.co.za/">icy.co.za</a></h2>\\n            </div>\\n            <!-- div id="search">\\n                <form method="get" action="">\\n                    <fieldset>\\n                    <input type="text" id="search-text" name="s" value="" />\\n                    </fieldset>\\n                </form>\\n            </div -->\\n            <!-- end #logo -->\\n        </div>\\n        <!-- end #header -->\\n        <div id="menu">\\n            <ul>\\n            \',escape=False)\nfirst=True\nresponse.write(\'\\n            \',escape=False)\nfor _name, _link in response.menu:\n    response.write(\'\\n            <li\',escape=False)\n    if first:\n        response.write(\' class="first"\',escape=False)\n        pass\n    response.write(\'><a href="\',escape=False)\n    response.write(_link)\n    response.write(\'">\',escape=False)\n    response.write(_name)\n    response.write(\'</a></li>\\n            \',escape=False)\n    first=False\n    response.write(\'\\n            \',escape=False)\n    pass\nresponse.write(\'\\n            </ul>\\n        </div>\\n        <!-- end #menu -->\\n    </div>\\n    <!-- end #header-wrapper -->\\n    <div id="page">\\n        \',escape=False)\ntry:\n    response.write(\'\\n        \',escape=False)\n    if dialogView:\n        response.write(\'\\n        \',escape=False)\n        pass\n    response.write(\'\\n        \',escape=False)\nexcept:\n    response.write(\'\\n        <!-- div id="banner"><a href="#"><img src="\',escape=False)\n    response.write(URL(r=request, c=\'static\', f=\'nimbus/images/img05.jpg\'))\n    response.write(\'" alt="" /></a></div -->\\n        \',escape=False)\n    pass\nresponse.write(\'\\n        \',escape=False)\nif response.flash:\n    response.write(\'\\n        <div class="flash">\',escape=False)\n    response.write(response.flash)\n    response.write(\'</div>\\n        \',escape=False)\n    pass\nresponse.write(\'\\n        <div id="page-bgcontent">\\n            <div id="content">\\n            \\n                \\n\\n\',escape=False)\nfor post in posts:\n    response.write(\'\\n\',escape=False)\n    response.write(post)\n    response.write(\'\\n\',escape=False)\n    pass\nresponse.write(\'\\n\\n                \\n            </div>\\n            <!-- end #content -->\\n            \\n        \',escape=False)\ntry:\n    response.write(\'\\n        \',escape=False)\n    if dialogView:\n        response.write(\'\\n        \',escape=False)\n        pass\n    response.write(\'\\n        \',escape=False)\nexcept:\n    response.write(\'\\n            <div id="sidebar">\\n                <ul>\\n                    <li>\\n                         <h2>account</h2>\\n                         \',escape=False)\n    if auth.is_logged_in():\n        response.write(\'\\n                             Hello <strong>\',escape=False)\n        response.write(auth.user.oid_name)\n        response.write(\'</strong>! You are logged in.<br />\\n                             ID <img style="vertical-align:middle" src="\',escape=False)\n        response.write(URL(r=request, c=\'static\', f=\'openid-16x16.gif\'))\n        response.write(\'"> http://icy.co.za/\',escape=False)\n        response.write(auth.user.oid_name)\n        response.write(\'\\n                           \\n                             \',escape=False)\n        import md5\n        response.write(\'\\n                             <center><br />\\n                             <a target="_gravatar" href="http://www.gravatar.com/"><img style="margin-top:1em;border:1px solid black" src="http://www.gravatar.com/avatar/\',escape=False)\n        response.write(md5.new(auth.user.email).hexdigest())\n        response.write(\'.jpg" /></a>\\n                             </center>\\n                             <p>\\n                             <ul>\\n                               <li><a href="\',escape=False)\n        response.write(URL(r=request, c=\'auth\', f=\'user\', args=\'profile\'))\n        response.write(\'">Your profile</a>\\n                               <li><a href="\',escape=False)\n        response.write(URL(r=request, c=\'auth\', f=\'user\', args=\'change_password\'))\n        response.write(\'">Change password</a>\\n                               <li><a href="\',escape=False)\n        response.write(URL(r=request, c=\'auth\', f=\'user\', args=\'logout\'))\n        response.write(\'">Logout</a>\\n                             </ul>\\n                             </p>\\n                            \\n                         \',escape=False)\n    else:\n        response.write(\'\\n                             \',escape=False)\n        response.write(auth.login())\n        response.write(\'\\n                             <ul>\\n                               <li><a href="\',escape=False)\n        response.write(URL(r=request, c=\'auth\', f=\'user\', args=\'retrieve_password\'))\n        response.write(\'">Lost password</a>\\n                               <li><a href="\',escape=False)\n        response.write(URL(r=request, c=\'auth\', f=\'user\', args=\'register\'))\n        response.write(\'">Register</a>\\n                             </ul>\\n                             </p>\\n                         \',escape=False)\n        pass\n    response.write(\'\\n                    </li>\\n                    \\n\\n                    <li>\\n                        <h2>use your id</h2>\\n                        <p>Here are a number of sites that accept opendID.</p>\\n                        <ul>\\n                            <li><a href="#">Sed accumsan congue</a></li>\\n                            <li><a href="#"> Nulla dignissim nec augue</a></li>\\n                            <li><a href="#">Nunc ante elit nulla</a></li>\\n                            <li><a href="#">Sed suscipit consequat</a></li>\\n                            <li><a href="#">Cursus sed arcu sed</a></li>\\n                            <li><a href="#">Nulla dignissim nec augue</a></li>\\n                            <li><a href="#">Sed accumsan congue</a></li>\\n                            <li><a href="#">Dignissim lorem augue</a></li>\\n                            <li><a href="#">Nunc ante elit nulla</a></li>\\n                            <li><a href="#">Sed suscipit consequat</a></li>\\n                            <li><a href="#">Cursus sed arcu sed<br />\\n                                </a></li>\\n                        </ul>\\n                    </li>\\n                </ul>\\n            </div>\\n            <!-- end #sidebar -->\\n        \',escape=False)\n    pass\nresponse.write(\'\\n            <div style="clear: both;">&nbsp;</div>\\n        </div>\\n        <div id="footer">\\n            <p>(c) 2009 icy.co.za\\n            <!-- Do not remove the following footer details please. The license requires it. -->\\n            <br />Powered by <a href="http://icy.co.za">icy openid</a> and <a href="http://web2py.com">web2py</a>. Design by <a href="http://www.nodethirtythree.com/">nodethirtythree</a> + <a href="http://www.freecsstemplates.org">free css templates</a>.\\n            </p>\\n        </div>\\n        <!-- end #footer -->\\n    </div>\\n    <!-- end #page -->\\n</div>\\n</body>\\n</html>\\n\',escape=False)'
p6
sS'traceback'
p7
S'Traceback (most recent call last):\n  File "/home/hcvst/dev/1.65.5web2py/gluon/restricted.py", line 176, in restricted\n    exec ccode in environment\n  File "/home/hcvst/dev/1.65.5web2py/applications/openid/views/default/index.html", line 28, in <module>\nValueError: too many values to unpack\n'
p8
s.